target datalayout = "e-m:e-p270:32:32-p271:32:32-p272:64:64-i64:64-i128:128-f80:128-n8:16:32:64-S128"
target triple = "x86_64-pc-linux-gnu"

@the_repository = external global ptr, align 8
@setup_work_tree.initialized = internal global i32 0, align 4
@work_tree_config_is_bogus = internal global i32 0, align 4
@.str.18 = private unnamed_addr constant [48 x i8] c"unable to set up work tree using invalid config\00", align 1
@.str.19 = private unnamed_addr constant [42 x i8] c"this operation must be run in a work tree\00", align 1
@.str.20 = private unnamed_addr constant [14 x i8] c"GIT_WORK_TREE\00", align 1
@.str.21 = private unnamed_addr constant [2 x i8] c".\00", align 1

; Function Attrs: nounwind uwtable
define dso_local void @setup_work_tree() #0 {
  %1 = alloca ptr, align 8
  %2 = alloca i32, align 4
  call void @llvm.lifetime.start.p0(i64 8, ptr %1) #13
  %3 = load i32, ptr @setup_work_tree.initialized, align 4, !tbaa !9
  %4 = icmp ne i32 %3, 0
  br i1 %4, label %5, label %6

5:                                                ; preds = %0
  store i32 1, ptr %2, align 4
  br label %28

6:                                                ; preds = %0
  %7 = load i32, ptr @work_tree_config_is_bogus, align 4, !tbaa !9
  %8 = icmp ne i32 %7, 0
  br i1 %8, label %9, label %11

9:                                                ; preds = %6
  %10 = call ptr @_(ptr noundef @.str.18)
  call void (ptr, ...) @die(ptr noundef %10) #15
  unreachable

11:                                               ; preds = %6
  %12 = load ptr, ptr @the_repository, align 8, !tbaa !14
  %13 = call ptr @repo_get_work_tree(ptr noundef %12)
  store ptr %13, ptr %1, align 8, !tbaa !4
  %14 = load ptr, ptr %1, align 8, !tbaa !4
  %15 = icmp ne ptr %14, null
  br i1 %15, label %16, label %20

16:                                               ; preds = %11
  %17 = load ptr, ptr %1, align 8, !tbaa !4
  %18 = call i32 @chdir_notify(ptr noundef %17)
  %19 = icmp ne i32 %18, 0
  br i1 %19, label %20, label %22

20:                                               ; preds = %16, %11
  %21 = call ptr @_(ptr noundef @.str.19)
  call void (ptr, ...) @die(ptr noundef %21) #15
  unreachable

22:                                               ; preds = %16
  %23 = call ptr @getenv(ptr noundef @.str.20) #13
  %24 = icmp ne ptr %23, null
  br i1 %24, label %25, label %27

25:                                               ; preds = %22
  %26 = call i32 @setenv(ptr noundef @.str.20, ptr noundef @.str.21, i32 noundef 1) #13
  br label %27

27:                                               ; preds = %25, %22
  store i32 1, ptr @setup_work_tree.initialized, align 4, !tbaa !9
  store i32 0, ptr %2, align 4
  br label %28

28:                                               ; preds = %27, %5
  call void @llvm.lifetime.end.p0(i64 8, ptr %1) #13
  %29 = load i32, ptr %2, align 4
  switch i32 %29, label %31 [
    i32 0, label %30
    i32 1, label %30
  ]

30:                                               ; preds = %28, %28
  ret void

31:                                               ; preds = %28
  unreachable
}