; Function Attrs: nounwind uwtable
define dso_local void @setup_work_tree() local_unnamed_addr #0 {
  %.b = load i1, ptr @setup_work_tree.initialized, align 4
  br i1 %.b, label %16, label %1

1:                                                ; preds = %0
  %.b2 = load i1, ptr @work_tree_config_is_bogus, align 4
  br i1 %.b2, label %2, label %4

2:                                                ; preds = %1
  %3 = tail call fastcc ptr @_(ptr noundef nonnull @.str.18)
  tail call void (ptr, ...) @die(ptr noundef %3) #26
  unreachable

4:                                                ; preds = %1
  %5 = load ptr, ptr @the_repository, align 8, !tbaa !9
  %6 = tail call ptr @repo_get_work_tree(ptr noundef %5) #25
  %.not = icmp eq ptr %6, null
  br i1 %.not, label %9, label %7

7:                                                ; preds = %4
  %8 = tail call i32 @chdir_notify(ptr noundef nonnull %6) #25
  %.not3 = icmp eq i32 %8, 0
  br i1 %.not3, label %11, label %9

9:                                                ; preds = %7, %4
  %10 = tail call fastcc ptr @_(ptr noundef nonnull @.str.19)
  tail call void (ptr, ...) @die(ptr noundef %10) #26
  unreachable

11:                                               ; preds = %7
  %12 = tail call ptr @getenv(ptr noundef nonnull @.str.20) #25
  %.not4 = icmp eq ptr %12, null
  br i1 %.not4, label %15, label %13

13:                                               ; preds = %11
  %14 = tail call i32 @setenv(ptr noundef nonnull @.str.20, ptr noundef nonnull @.str.21, i32 noundef 1) #25
  br label %15

15:                                               ; preds = %13, %11
  store i1 true, ptr @setup_work_tree.initialized, align 4
  br label %16

16:                                               ; preds = %0, %15
  ret void
}